target datalayout = "e-m:e-p270:32:32-p271:32:32-p272:64:64-i64:64-i128:128-f80:128-n8:16:32:64-S128"
target triple = "x86_64-pc-linux-gnu"

%struct.RTypedData = type { %struct.RBasic, ptr, i64, ptr }
%struct.RBasic = type { i64, i64 }

@cPKey = global i64 0, align 8
@cRSA = external global i64, align 8
@cDSA = external global i64, align 8
@cDH = external global i64, align 8
@cEC = external global i64, align 8

; Function Attrs: nounwind sspstrong uwtable
define internal i64 @pkey_new0(i64 noundef %0) #0 {
  %2 = alloca i64, align 8
  %3 = alloca ptr, align 8
  %4 = alloca i64, align 8
  %5 = alloca i64, align 8
  store i64 %0, ptr %2, align 8, !tbaa !12
  call void @llvm.lifetime.start.p0(i64 8, ptr %3) #19
  %6 = load i64, ptr %2, align 8, !tbaa !12
  %7 = inttoptr i64 %6 to ptr
  store ptr %7, ptr %3, align 8, !tbaa !10
  call void @llvm.lifetime.start.p0(i64 8, ptr %4) #19
  call void @llvm.lifetime.start.p0(i64 8, ptr %5) #19
  %8 = load ptr, ptr %3, align 8, !tbaa !10
  %9 = call i32 @EVP_PKEY_get_base_id(ptr noundef %8)
  switch i32 %9, label %18 [
    i32 6, label %10
    i32 116, label %12
    i32 28, label %14
    i32 408, label %16
  ]

10:                                               ; preds = %1
  %11 = load i64, ptr @cRSA, align 8, !tbaa !12
  store i64 %11, ptr %4, align 8, !tbaa !12
  br label %20

12:                                               ; preds = %1
  %13 = load i64, ptr @cDSA, align 8, !tbaa !12
  store i64 %13, ptr %4, align 8, !tbaa !12
  br label %20

14:                                               ; preds = %1
  %15 = load i64, ptr @cDH, align 8, !tbaa !12
  store i64 %15, ptr %4, align 8, !tbaa !12
  br label %20

16:                                               ; preds = %1
  %17 = load i64, ptr @cEC, align 8, !tbaa !12
  store i64 %17, ptr %4, align 8, !tbaa !12
  br label %20

18:                                               ; preds = %1
  %19 = load i64, ptr @cPKey, align 8, !tbaa !12
  store i64 %19, ptr %4, align 8, !tbaa !12
  br label %20

20:                                               ; preds = %18, %16, %14, %12, %10
  %21 = load i64, ptr %4, align 8, !tbaa !12
  %22 = call i64 @rb_obj_alloc(i64 noundef %21)
  store i64 %22, ptr %5, align 8, !tbaa !12
  %23 = load ptr, ptr %3, align 8, !tbaa !10
  %24 = load i64, ptr %5, align 8, !tbaa !12
  %25 = inttoptr i64 %24 to ptr
  %26 = getelementptr inbounds nuw %struct.RTypedData, ptr %25, i32 0, i32 3
  store ptr %23, ptr %26, align 8, !tbaa !16
  %27 = load i64, ptr %5, align 8, !tbaa !12
  call void @llvm.lifetime.end.p0(i64 8, ptr %5) #19
  call void @llvm.lifetime.end.p0(i64 8, ptr %4) #19
  call void @llvm.lifetime.end.p0(i64 8, ptr %3) #19
  ret i64 %27
}