; Function Attrs: nounwind sspstrong uwtable
define internal i64 @pkey_new0(i64 noundef %0) #0 {
  %2 = inttoptr i64 %0 to ptr
  %3 = tail call i32 @EVP_PKEY_get_base_id(ptr noundef %2) #8
  switch i32 %3, label %7 [
    i32 6, label %8
    i32 116, label %4
    i32 28, label %5
    i32 408, label %6
  ]

4:                                                ; preds = %1
  br label %8

5:                                                ; preds = %1
  br label %8

6:                                                ; preds = %1
  br label %8

7:                                                ; preds = %1
  br label %8

8:                                                ; preds = %1, %7, %6, %5, %4
  %.0.in = phi ptr [ @cPKey, %7 ], [ @cEC, %6 ], [ @cDH, %5 ], [ @cDSA, %4 ], [ @cRSA, %1 ]
  %.0 = load i64, ptr %.0.in, align 8, !tbaa !10
  %9 = tail call i64 @rb_obj_alloc(i64 noundef %.0) #8
  %10 = inttoptr i64 %9 to ptr
  %11 = getelementptr inbounds nuw i8, ptr %10, i64 32
  store ptr %2, ptr %11, align 8, !tbaa !12
  ret i64 %9
}